target datalayout = "e-m:e-p270:32:32-p271:32:32-p272:64:64-i64:64-i128:128-f80:128-n8:16:32:64-S128"
target triple = "x86_64-pc-linux-gnu"

%struct.blake2sp_state__ = type { [8 x [1 x %struct.blake2s_state__]], [1 x %struct.blake2s_state__], [512 x i8], i64, i64 }
%struct.blake2s_state__ = type { [8 x i32], [2 x i32], [2 x i32], [64 x i8], i64, i64, i8 }
%struct.blake2s_param__ = type { i8, i8, i8, i8, i32, i32, i16, i8, i8, [8 x i8], [8 x i8] }

; Function Attrs: nounwind uwtable
define internal i32 @blake2sp_init_leaf_param(ptr noundef %0, ptr noundef %1) #0 {
  %3 = alloca ptr, align 8
  %4 = alloca ptr, align 8
  %5 = alloca i32, align 4
  store ptr %0, ptr %3, align 8, !tbaa !18
  store ptr %1, ptr %4, align 8, !tbaa !47
  call void @llvm.lifetime.start.p0(i64 4, ptr %5) #7
  %6 = load ptr, ptr %3, align 8, !tbaa !18
  %7 = load ptr, ptr %4, align 8, !tbaa !47
  %8 = call i32 @blake2s_init_param(ptr noundef %6, ptr noundef %7)
  store i32 %8, ptr %5, align 4, !tbaa !29
  %9 = load ptr, ptr %4, align 8, !tbaa !47
  %10 = getelementptr inbounds nuw %struct.blake2s_param__, ptr %9, i32 0, i32 8
  %11 = load i8, ptr %10, align 1, !tbaa !28
  %12 = zext i8 %11 to i64
  %13 = load ptr, ptr %3, align 8, !tbaa !18
  %14 = getelementptr inbounds nuw %struct.blake2s_state__, ptr %13, i32 0, i32 5
  store i64 %12, ptr %14, align 8, !tbaa !49
  %15 = load i32, ptr %5, align 4, !tbaa !29
  call void @llvm.lifetime.end.p0(i64 4, ptr %5) #7
  ret i32 %15
}

; Function Attrs: inlinehint nounwind uwtable
define internal void @store16(ptr noundef %0, i16 noundef zeroext %1) #5 {
  %3 = alloca ptr, align 8
  %4 = alloca i16, align 2
  %5 = alloca ptr, align 8
  store ptr %0, ptr %3, align 8, !tbaa !30
  store i16 %1, ptr %4, align 2, !tbaa !46
  call void @llvm.lifetime.start.p0(i64 8, ptr %5) #7
  %6 = load ptr, ptr %3, align 8, !tbaa !30
  store ptr %6, ptr %5, align 8, !tbaa !33
  %7 = load i16, ptr %4, align 2, !tbaa !46
  %8 = trunc i16 %7 to i8
  %9 = load ptr, ptr %5, align 8, !tbaa !33
  %10 = getelementptr inbounds nuw i8, ptr %9, i32 1
  store ptr %10, ptr %5, align 8, !tbaa !33
  store i8 %8, ptr %9, align 1, !tbaa !45
  %11 = load i16, ptr %4, align 2, !tbaa !46
  %12 = zext i16 %11 to i32
  %13 = ashr i32 %12, 8
  %14 = trunc i32 %13 to i16
  store i16 %14, ptr %4, align 2, !tbaa !46
  %15 = load i16, ptr %4, align 2, !tbaa !46
  %16 = trunc i16 %15 to i8
  %17 = load ptr, ptr %5, align 8, !tbaa !33
  %18 = getelementptr inbounds nuw i8, ptr %17, i32 1
  store ptr %18, ptr %5, align 8, !tbaa !33
  store i8 %16, ptr %17, align 1, !tbaa !45
  call void @llvm.lifetime.end.p0(i64 8, ptr %5) #7
  ret void
}

; Function Attrs: inlinehint nounwind uwtable
define internal void @store32(ptr noundef %0, i32 noundef %1) #5 {
  %3 = alloca ptr, align 8
  %4 = alloca i32, align 4
  %5 = alloca ptr, align 8
  store ptr %0, ptr %3, align 8, !tbaa !30
  store i32 %1, ptr %4, align 4, !tbaa !29
  call void @llvm.lifetime.start.p0(i64 8, ptr %5) #7
  %6 = load ptr, ptr %3, align 8, !tbaa !30
  store ptr %6, ptr %5, align 8, !tbaa !33
  %7 = load i32, ptr %4, align 4, !tbaa !29
  %8 = lshr i32 %7, 0
  %9 = trunc i32 %8 to i8
  %10 = load ptr, ptr %5, align 8, !tbaa !33
  %11 = getelementptr inbounds i8, ptr %10, i64 0
  store i8 %9, ptr %11, align 1, !tbaa !45
  %12 = load i32, ptr %4, align 4, !tbaa !29
  %13 = lshr i32 %12, 8
  %14 = trunc i32 %13 to i8
  %15 = load ptr, ptr %5, align 8, !tbaa !33
  %16 = getelementptr inbounds i8, ptr %15, i64 1
  store i8 %14, ptr %16, align 1, !tbaa !45
  %17 = load i32, ptr %4, align 4, !tbaa !29
  %18 = lshr i32 %17, 16
  %19 = trunc i32 %18 to i8
  %20 = load ptr, ptr %5, align 8, !tbaa !33
  %21 = getelementptr inbounds i8, ptr %20, i64 2
  store i8 %19, ptr %21, align 1, !tbaa !45
  %22 = load i32, ptr %4, align 4, !tbaa !29
  %23 = lshr i32 %22, 24
  %24 = trunc i32 %23 to i8
  %25 = load ptr, ptr %5, align 8, !tbaa !33
  %26 = getelementptr inbounds i8, ptr %25, i64 3
  store i8 %24, ptr %26, align 1, !tbaa !45
  call void @llvm.lifetime.end.p0(i64 8, ptr %5) #7
  ret void
}

; Function Attrs: nounwind uwtable
define internal i32 @blake2sp_init_leaf(ptr noundef %0, i64 noundef %1, i64 noundef %2, i32 noundef %3) #0 {
  %5 = alloca ptr, align 8
  %6 = alloca i64, align 8
  %7 = alloca i64, align 8
  %8 = alloca i32, align 4
  %9 = alloca [1 x %struct.blake2s_param__], align 16
  store ptr %0, ptr %5, align 8, !tbaa !18
  store i64 %1, ptr %6, align 8, !tbaa !9
  store i64 %2, ptr %7, align 8, !tbaa !9
  store i32 %3, ptr %8, align 4, !tbaa !29
  call void @llvm.lifetime.start.p0(i64 32, ptr %9) #7
  %10 = load i64, ptr %6, align 8, !tbaa !9
  %11 = trunc i64 %10 to i8
  %12 = getelementptr inbounds [1 x %struct.blake2s_param__], ptr %9, i64 0, i64 0
  %13 = getelementptr inbounds nuw %struct.blake2s_param__, ptr %12, i32 0, i32 0
  store i8 %11, ptr %13, align 16, !tbaa !20
  %14 = load i64, ptr %7, align 8, !tbaa !9
  %15 = trunc i64 %14 to i8
  %16 = getelementptr inbounds [1 x %struct.blake2s_param__], ptr %9, i64 0, i64 0
  %17 = getelementptr inbounds nuw %struct.blake2s_param__, ptr %16, i32 0, i32 1
  store i8 %15, ptr %17, align 1, !tbaa !24
  %18 = getelementptr inbounds [1 x %struct.blake2s_param__], ptr %9, i64 0, i64 0
  %19 = getelementptr inbounds nuw %struct.blake2s_param__, ptr %18, i32 0, i32 2
  store i8 8, ptr %19, align 2, !tbaa !25
  %20 = getelementptr inbounds [1 x %struct.blake2s_param__], ptr %9, i64 0, i64 0
  %21 = getelementptr inbounds nuw %struct.blake2s_param__, ptr %20, i32 0, i32 3
  store i8 2, ptr %21, align 1, !tbaa !26
  %22 = getelementptr inbounds [1 x %struct.blake2s_param__], ptr %9, i64 0, i64 0
  %23 = getelementptr inbounds nuw %struct.blake2s_param__, ptr %22, i32 0, i32 4
  call void @store32(ptr noundef %23, i32 noundef 0)
  %24 = getelementptr inbounds [1 x %struct.blake2s_param__], ptr %9, i64 0, i64 0
  %25 = getelementptr inbounds nuw %struct.blake2s_param__, ptr %24, i32 0, i32 5
  %26 = load i32, ptr %8, align 4, !tbaa !29
  call void @store32(ptr noundef %25, i32 noundef %26)
  %27 = getelementptr inbounds [1 x %struct.blake2s_param__], ptr %9, i64 0, i64 0
  %28 = getelementptr inbounds nuw %struct.blake2s_param__, ptr %27, i32 0, i32 6
  call void @store16(ptr noundef %28, i16 noundef zeroext 0)
  %29 = getelementptr inbounds [1 x %struct.blake2s_param__], ptr %9, i64 0, i64 0
  %30 = getelementptr inbounds nuw %struct.blake2s_param__, ptr %29, i32 0, i32 7
  store i8 0, ptr %30, align 2, !tbaa !27
  %31 = getelementptr inbounds [1 x %struct.blake2s_param__], ptr %9, i64 0, i64 0
  %32 = getelementptr inbounds nuw %struct.blake2s_param__, ptr %31, i32 0, i32 8
  store i8 32, ptr %32, align 1, !tbaa !28
  %33 = getelementptr inbounds [1 x %struct.blake2s_param__], ptr %9, i64 0, i64 0
  %34 = getelementptr inbounds nuw %struct.blake2s_param__, ptr %33, i32 0, i32 9
  %35 = getelementptr inbounds [8 x i8], ptr %34, i64 0, i64 0
  call void @llvm.memset.p0.i64(ptr align 16 %35, i8 0, i64 8, i1 false)
  %36 = getelementptr inbounds [1 x %struct.blake2s_param__], ptr %9, i64 0, i64 0
  %37 = getelementptr inbounds nuw %struct.blake2s_param__, ptr %36, i32 0, i32 10
  %38 = getelementptr inbounds [8 x i8], ptr %37, i64 0, i64 0
  call void @llvm.memset.p0.i64(ptr align 8 %38, i8 0, i64 8, i1 false)
  %39 = load ptr, ptr %5, align 8, !tbaa !18
  %40 = getelementptr inbounds [1 x %struct.blake2s_param__], ptr %9, i64 0, i64 0
  %41 = call i32 @blake2sp_init_leaf_param(ptr noundef %39, ptr noundef %40)
  call void @llvm.lifetime.end.p0(i64 32, ptr %9) #7
  ret i32 %41
}

; Function Attrs: nounwind uwtable
define internal i32 @blake2sp_init_root(ptr noundef %0, i64 noundef %1, i64 noundef %2) #0 {
  %4 = alloca ptr, align 8
  %5 = alloca i64, align 8
  %6 = alloca i64, align 8
  %7 = alloca [1 x %struct.blake2s_param__], align 16
  store ptr %0, ptr %4, align 8, !tbaa !18
  store i64 %1, ptr %5, align 8, !tbaa !9
  store i64 %2, ptr %6, align 8, !tbaa !9
  call void @llvm.lifetime.start.p0(i64 32, ptr %7) #7
  %8 = load i64, ptr %5, align 8, !tbaa !9
  %9 = trunc i64 %8 to i8
  %10 = getelementptr inbounds [1 x %struct.blake2s_param__], ptr %7, i64 0, i64 0
  %11 = getelementptr inbounds nuw %struct.blake2s_param__, ptr %10, i32 0, i32 0
  store i8 %9, ptr %11, align 16, !tbaa !20
  %12 = load i64, ptr %6, align 8, !tbaa !9
  %13 = trunc i64 %12 to i8
  %14 = getelementptr inbounds [1 x %struct.blake2s_param__], ptr %7, i64 0, i64 0
  %15 = getelementptr inbounds nuw %struct.blake2s_param__, ptr %14, i32 0, i32 1
  store i8 %13, ptr %15, align 1, !tbaa !24
  %16 = getelementptr inbounds [1 x %struct.blake2s_param__], ptr %7, i64 0, i64 0
  %17 = getelementptr inbounds nuw %struct.blake2s_param__, ptr %16, i32 0, i32 2
  store i8 8, ptr %17, align 2, !tbaa !25
  %18 = getelementptr inbounds [1 x %struct.blake2s_param__], ptr %7, i64 0, i64 0
  %19 = getelementptr inbounds nuw %struct.blake2s_param__, ptr %18, i32 0, i32 3
  store i8 2, ptr %19, align 1, !tbaa !26
  %20 = getelementptr inbounds [1 x %struct.blake2s_param__], ptr %7, i64 0, i64 0
  %21 = getelementptr inbounds nuw %struct.blake2s_param__, ptr %20, i32 0, i32 4
  call void @store32(ptr noundef %21, i32 noundef 0)
  %22 = getelementptr inbounds [1 x %struct.blake2s_param__], ptr %7, i64 0, i64 0
  %23 = getelementptr inbounds nuw %struct.blake2s_param__, ptr %22, i32 0, i32 5
  call void @store32(ptr noundef %23, i32 noundef 0)
  %24 = getelementptr inbounds [1 x %struct.blake2s_param__], ptr %7, i64 0, i64 0
  %25 = getelementptr inbounds nuw %struct.blake2s_param__, ptr %24, i32 0, i32 6
  call void @store16(ptr noundef %25, i16 noundef zeroext 0)
  %26 = getelementptr inbounds [1 x %struct.blake2s_param__], ptr %7, i64 0, i64 0
  %27 = getelementptr inbounds nuw %struct.blake2s_param__, ptr %26, i32 0, i32 7
  store i8 1, ptr %27, align 2, !tbaa !27
  %28 = getelementptr inbounds [1 x %struct.blake2s_param__], ptr %7, i64 0, i64 0
  %29 = getelementptr inbounds nuw %struct.blake2s_param__, ptr %28, i32 0, i32 8
  store i8 32, ptr %29, align 1, !tbaa !28
  %30 = getelementptr inbounds [1 x %struct.blake2s_param__], ptr %7, i64 0, i64 0
  %31 = getelementptr inbounds nuw %struct.blake2s_param__, ptr %30, i32 0, i32 9
  %32 = getelementptr inbounds [8 x i8], ptr %31, i64 0, i64 0
  call void @llvm.memset.p0.i64(ptr align 16 %32, i8 0, i64 8, i1 false)
  %33 = getelementptr inbounds [1 x %struct.blake2s_param__], ptr %7, i64 0, i64 0
  %34 = getelementptr inbounds nuw %struct.blake2s_param__, ptr %33, i32 0, i32 10
  %35 = getelementptr inbounds [8 x i8], ptr %34, i64 0, i64 0
  call void @llvm.memset.p0.i64(ptr align 8 %35, i8 0, i64 8, i1 false)
  %36 = load ptr, ptr %4, align 8, !tbaa !18
  %37 = getelementptr inbounds [1 x %struct.blake2s_param__], ptr %7, i64 0, i64 0
  %38 = call i32 @blake2s_init_param(ptr noundef %36, ptr noundef %37)
  call void @llvm.lifetime.end.p0(i64 32, ptr %7) #7
  ret i32 %38
}

; Function Attrs: nounwind uwtable
define dso_local i32 @blake2sp_init(ptr noundef %0, i64 noundef %1) #0 {
  %3 = alloca i32, align 4
  %4 = alloca ptr, align 8
  %5 = alloca i64, align 8
  %6 = alloca i64, align 8
  %7 = alloca i32, align 4
  store ptr %0, ptr %4, align 8, !tbaa !4
  store i64 %1, ptr %5, align 8, !tbaa !9
  call void @llvm.lifetime.start.p0(i64 8, ptr %6) #7
  %8 = load i64, ptr %5, align 8, !tbaa !9
  %9 = icmp ne i64 %8, 0
  br i1 %9, label %10, label %13

10:                                               ; preds = %2
  %11 = load i64, ptr %5, align 8, !tbaa !9
  %12 = icmp ugt i64 %11, 32
  br i1 %12, label %13, label %14

13:                                               ; preds = %10, %2
  store i32 -1, ptr %3, align 4
  store i32 1, ptr %7, align 4
  br label %60

14:                                               ; preds = %10
  %15 = load ptr, ptr %4, align 8, !tbaa !4
  %16 = getelementptr inbounds nuw %struct.blake2sp_state__, ptr %15, i32 0, i32 2
  %17 = getelementptr inbounds [512 x i8], ptr %16, i64 0, i64 0
  call void @llvm.memset.p0.i64(ptr align 8 %17, i8 0, i64 512, i1 false)
  %18 = load ptr, ptr %4, align 8, !tbaa !4
  %19 = getelementptr inbounds nuw %struct.blake2sp_state__, ptr %18, i32 0, i32 3
  store i64 0, ptr %19, align 8, !tbaa !11
  %20 = load i64, ptr %5, align 8, !tbaa !9
  %21 = load ptr, ptr %4, align 8, !tbaa !4
  %22 = getelementptr inbounds nuw %struct.blake2sp_state__, ptr %21, i32 0, i32 4
  store i64 %20, ptr %22, align 8, !tbaa !13
  %23 = load ptr, ptr %4, align 8, !tbaa !4
  %24 = getelementptr inbounds nuw %struct.blake2sp_state__, ptr %23, i32 0, i32 1
  %25 = getelementptr inbounds [1 x %struct.blake2s_state__], ptr %24, i64 0, i64 0
  %26 = load i64, ptr %5, align 8, !tbaa !9
  %27 = call i32 @blake2sp_init_root(ptr noundef %25, i64 noundef %26, i64 noundef 0)
  %28 = icmp slt i32 %27, 0
  br i1 %28, label %29, label %30

29:                                               ; preds = %14
  store i32 -1, ptr %3, align 4
  store i32 1, ptr %7, align 4
  br label %60

30:                                               ; preds = %14
  store i64 0, ptr %6, align 8, !tbaa !9
  br label %31

31:                                               ; preds = %47, %30
  %32 = load i64, ptr %6, align 8, !tbaa !9
  %33 = icmp ult i64 %32, 8
  br i1 %33, label %34, label %50

34:                                               ; preds = %31
  %35 = load ptr, ptr %4, align 8, !tbaa !4
  %36 = getelementptr inbounds nuw %struct.blake2sp_state__, ptr %35, i32 0, i32 0
  %37 = load i64, ptr %6, align 8, !tbaa !9
  %38 = getelementptr inbounds nuw [8 x [1 x %struct.blake2s_state__]], ptr %36, i64 0, i64 %37
  %39 = getelementptr inbounds [1 x %struct.blake2s_state__], ptr %38, i64 0, i64 0
  %40 = load i64, ptr %5, align 8, !tbaa !9
  %41 = load i64, ptr %6, align 8, !tbaa !9
  %42 = trunc i64 %41 to i32
  %43 = call i32 @blake2sp_init_leaf(ptr noundef %39, i64 noundef %40, i64 noundef 0, i32 noundef %42)
  %44 = icmp slt i32 %43, 0
  br i1 %44, label %45, label %46

45:                                               ; preds = %34
  store i32 -1, ptr %3, align 4
  store i32 1, ptr %7, align 4
  br label %60

46:                                               ; preds = %34
  br label %47

47:                                               ; preds = %46
  %48 = load i64, ptr %6, align 8, !tbaa !9
  %49 = add i64 %48, 1
  store i64 %49, ptr %6, align 8, !tbaa !9
  br label %31, !llvm.loop !14

50:                                               ; preds = %31
  %51 = load ptr, ptr %4, align 8, !tbaa !4
  %52 = getelementptr inbounds nuw %struct.blake2sp_state__, ptr %51, i32 0, i32 1
  %53 = getelementptr inbounds [1 x %struct.blake2s_state__], ptr %52, i64 0, i64 0
  %54 = getelementptr inbounds nuw %struct.blake2s_state__, ptr %53, i32 0, i32 6
  store i8 1, ptr %54, align 8, !tbaa !16
  %55 = load ptr, ptr %4, align 8, !tbaa !4
  %56 = getelementptr inbounds nuw %struct.blake2sp_state__, ptr %55, i32 0, i32 0
  %57 = getelementptr inbounds [8 x [1 x %struct.blake2s_state__]], ptr %56, i64 0, i64 7
  %58 = getelementptr inbounds [1 x %struct.blake2s_state__], ptr %57, i64 0, i64 0
  %59 = getelementptr inbounds nuw %struct.blake2s_state__, ptr %58, i32 0, i32 6
  store i8 1, ptr %59, align 8, !tbaa !16
  store i32 0, ptr %3, align 4
  store i32 1, ptr %7, align 4
  br label %60

60:                                               ; preds = %50, %45, %29, %13
  call void @llvm.lifetime.end.p0(i64 8, ptr %6) #7
  %61 = load i32, ptr %3, align 4
  ret i32 %61
}