; Function Attrs: nounwind uwtable
define dso_local range(i32 -1, 1) i32 @blake2sp_init(ptr noundef %0, i64 noundef %1) local_unnamed_addr #0 {
  %3 = alloca [1 x %struct.blake2s_param__], align 16
  %4 = alloca [1 x %struct.blake2s_param__], align 16
  %5 = add i64 %1, -33
  %or.cond = icmp ult i64 %5, -32
  br i1 %or.cond, label %.loopexit, label %6

6:                                                ; preds = %2
  %7 = getelementptr inbounds nuw i8, ptr %0, i64 1224
  %8 = getelementptr inbounds nuw i8, ptr %0, i64 1744
  tail call void @llvm.memset.p0.i64(ptr noundef nonnull align 8 dereferenceable(520) %7, i8 0, i64 520, i1 false)
  store i64 %1, ptr %8, align 8, !tbaa !4
  %9 = getelementptr inbounds nuw i8, ptr %0, i64 1088
  call void @llvm.lifetime.start.p0(i64 32, ptr nonnull %4) #7
  %10 = trunc nuw nsw i64 %1 to i8
  store i8 %10, ptr %4, align 16, !tbaa !9
  %11 = getelementptr inbounds nuw i8, ptr %4, i64 1
  store i8 0, ptr %11, align 1, !tbaa !13
  %12 = getelementptr inbounds nuw i8, ptr %4, i64 2
  store i8 8, ptr %12, align 2, !tbaa !14
  %13 = getelementptr inbounds nuw i8, ptr %4, i64 3
  store i8 2, ptr %13, align 1, !tbaa !15
  %14 = getelementptr inbounds nuw i8, ptr %4, i64 4
  %15 = getelementptr inbounds nuw i8, ptr %4, i64 14
  call void @llvm.memset.p0.i64(ptr noundef nonnull align 4 dereferenceable(10) %14, i8 0, i64 10, i1 false)
  store i8 1, ptr %15, align 2, !tbaa !16
  %16 = getelementptr inbounds nuw i8, ptr %4, i64 15
  store i8 32, ptr %16, align 1, !tbaa !17
  %17 = getelementptr inbounds nuw i8, ptr %4, i64 16
  call void @llvm.memset.p0.i64(ptr noundef nonnull align 16 dereferenceable(16) %17, i8 0, i64 16, i1 false)
  %18 = call i32 @blake2s_init_param(ptr noundef nonnull %9, ptr noundef nonnull %4) #7
  call void @llvm.lifetime.end.p0(i64 32, ptr nonnull %4) #7
  %19 = icmp slt i32 %18, 0
  br i1 %19, label %.loopexit, label %.preheader

.preheader:                                       ; preds = %6
  %20 = getelementptr inbounds nuw i8, ptr %3, i64 1
  %21 = getelementptr inbounds nuw i8, ptr %3, i64 2
  %22 = getelementptr inbounds nuw i8, ptr %3, i64 3
  %23 = getelementptr inbounds nuw i8, ptr %3, i64 4
  %24 = getelementptr inbounds nuw i8, ptr %3, i64 8
  %25 = getelementptr inbounds nuw i8, ptr %3, i64 9
  %26 = getelementptr inbounds nuw i8, ptr %3, i64 15
  %27 = getelementptr inbounds nuw i8, ptr %3, i64 16
  br label %30

28:                                               ; preds = %30
  %29 = add nuw nsw i64 %.019, 1
  %exitcond.not = icmp eq i64 %29, 8
  br i1 %exitcond.not, label %38, label %30, !llvm.loop !18

30:                                               ; preds = %.preheader, %28
  %.019 = phi i64 [ 0, %.preheader ], [ %29, %28 ]
  %31 = getelementptr inbounds nuw [8 x [1 x %struct.blake2s_state__]], ptr %0, i64 0, i64 %.019
  call void @llvm.lifetime.start.p0(i64 32, ptr nonnull %3) #7
  store i8 %10, ptr %3, align 16, !tbaa !9
  store i8 0, ptr %20, align 1, !tbaa !13
  store i8 8, ptr %21, align 2, !tbaa !14
  store i8 2, ptr %22, align 1, !tbaa !15
  %32 = trunc nuw nsw i64 %.019 to i8
  store i32 0, ptr %23, align 4
  store i8 %32, ptr %24, align 8, !tbaa !20
  call void @llvm.memset.p0.i64(ptr noundef nonnull align 1 dereferenceable(6) %25, i8 0, i64 6, i1 false)
  store i8 32, ptr %26, align 1, !tbaa !17
  call void @llvm.memset.p0.i64(ptr noundef nonnull align 16 dereferenceable(16) %27, i8 0, i64 16, i1 false)
  %33 = call i32 @blake2s_init_param(ptr noundef %31, ptr noundef nonnull %3) #7
  %34 = load i8, ptr %26, align 1, !tbaa !17
  %35 = zext i8 %34 to i64
  %36 = getelementptr inbounds nuw i8, ptr %31, i64 120
  store i64 %35, ptr %36, align 8, !tbaa !21
  call void @llvm.lifetime.end.p0(i64 32, ptr nonnull %3) #7
  %37 = icmp slt i32 %33, 0
  br i1 %37, label %.loopexit, label %28

38:                                               ; preds = %28
  %39 = getelementptr inbounds nuw i8, ptr %0, i64 1216
  store i8 1, ptr %39, align 8, !tbaa !23
  %40 = getelementptr inbounds nuw i8, ptr %0, i64 1080
  store i8 1, ptr %40, align 8, !tbaa !23
  br label %.loopexit

.loopexit:                                        ; preds = %30, %6, %2, %38
  %.017 = phi i32 [ 0, %38 ], [ -1, %2 ], [ -1, %6 ], [ -1, %30 ]
  ret i32 %.017
}